target datalayout = "e-m:e-p270:32:32-p271:32:32-p272:64:64-i64:64-i128:128-f80:128-n8:16:32:64-S128"
target triple = "x86_64-pc-linux-gnu"

%struct.st_str_end_key = type { ptr, ptr }

; Function Attrs: nounwind sspstrong uwtable
define dso_local i32 @onig_st_insert_strend(ptr noundef %0, ptr noundef %1, ptr noundef %2, i64 noundef %3) #0 {
  %5 = alloca ptr, align 8
  %6 = alloca ptr, align 8
  %7 = alloca ptr, align 8
  %8 = alloca i64, align 8
  %9 = alloca ptr, align 8
  %10 = alloca i32, align 4
  store ptr %0, ptr %5, align 8, !tbaa !12
  store ptr %1, ptr %6, align 8, !tbaa !7
  store ptr %2, ptr %7, align 8, !tbaa !7
  store i64 %3, ptr %8, align 8, !tbaa !15
  call void @llvm.lifetime.start.p0(i64 8, ptr %9) #13
  call void @llvm.lifetime.start.p0(i64 4, ptr %10) #13
  %11 = call noalias ptr @malloc(i64 noundef 16) #14
  store ptr %11, ptr %9, align 8, !tbaa !12
  %12 = load ptr, ptr %6, align 8, !tbaa !7
  %13 = load ptr, ptr %9, align 8, !tbaa !12
  %14 = getelementptr inbounds nuw %struct.st_str_end_key, ptr %13, i32 0, i32 0
  store ptr %12, ptr %14, align 8, !tbaa !20
  %15 = load ptr, ptr %7, align 8, !tbaa !7
  %16 = load ptr, ptr %9, align 8, !tbaa !12
  %17 = getelementptr inbounds nuw %struct.st_str_end_key, ptr %16, i32 0, i32 1
  store ptr %15, ptr %17, align 8, !tbaa !18
  %18 = load ptr, ptr %5, align 8, !tbaa !12
  %19 = load ptr, ptr %9, align 8, !tbaa !12
  %20 = ptrtoint ptr %19 to i64
  %21 = load i64, ptr %8, align 8, !tbaa !15
  %22 = call i32 @rb_st_insert(ptr noundef %18, i64 noundef %20, i64 noundef %21)
  store i32 %22, ptr %10, align 4, !tbaa !13
  %23 = load i32, ptr %10, align 4, !tbaa !13
  %24 = icmp ne i32 %23, 0
  br i1 %24, label %25, label %27

25:                                               ; preds = %4
  %26 = load ptr, ptr %9, align 8, !tbaa !12
  call void @free(ptr noundef %26) #13
  br label %27

27:                                               ; preds = %25, %4
  %28 = load i32, ptr %10, align 4, !tbaa !13
  call void @llvm.lifetime.end.p0(i64 4, ptr %10) #13
  call void @llvm.lifetime.end.p0(i64 8, ptr %9) #13
  ret i32 %28
}