; Function Attrs: nounwind sspstrong uwtable
define dso_local i32 @onig_st_insert_strend(ptr noundef %0, ptr noundef %1, ptr noundef %2, i64 noundef %3) local_unnamed_addr #5 {
  %5 = tail call noalias dereferenceable_or_null(16) ptr @malloc(i64 noundef 16) #26
  store ptr %1, ptr %5, align 8, !tbaa !17
  %6 = getelementptr inbounds nuw i8, ptr %5, i64 8
  store ptr %2, ptr %6, align 8, !tbaa !14
  %7 = ptrtoint ptr %5 to i64
  %8 = tail call i32 @rb_st_insert(ptr noundef %0, i64 noundef %7, i64 noundef %3) #25
  %.not = icmp eq i32 %8, 0
  br i1 %.not, label %10, label %9

9:                                                ; preds = %4
  tail call void @free(ptr noundef nonnull %5) #25
  br label %10

10:                                               ; preds = %9, %4
  ret i32 %8
}